target datalayout = "e-m:e-p270:32:32-p271:32:32-p272:64:64-i64:64-i128:128-f80:128-n8:16:32:64-S128"
target triple = "x86_64-pc-linux-gnu"

%struct.rtf_state = type { ptr, ptr, ptr, ptr, i64, i64, i64, i32, i32, i32, [33 x i8] }
%struct.rtf_object_data = type { ptr, i32, i32, i32, i32, ptr, ptr, ptr, i64, i64 }

; Function Attrs: nounwind uwtable
define internal i32 @rtf_object_end(ptr noundef %0, ptr noundef %1) #0 {
  %3 = alloca i32, align 4
  %4 = alloca ptr, align 8
  %5 = alloca ptr, align 8
  %6 = alloca ptr, align 8
  %7 = alloca i32, align 4
  store ptr %0, ptr %4, align 8
  store ptr %1, ptr %5, align 8
  %8 = load ptr, ptr %4, align 8
  %9 = getelementptr inbounds %struct.rtf_state, ptr %8, i32 0, i32 3
  %10 = load ptr, ptr %9, align 8
  store ptr %10, ptr %6, align 8
  store i32 0, ptr %7, align 4
  %11 = load ptr, ptr %6, align 8
  %12 = icmp ne ptr %11, null
  br i1 %12, label %14, label %13

13:                                               ; preds = %2
  store i32 0, ptr %3, align 4
  br label %46

14:                                               ; preds = %2
  %15 = load ptr, ptr %6, align 8
  %16 = getelementptr inbounds %struct.rtf_object_data, ptr %15, i32 0, i32 1
  %17 = load i32, ptr %16, align 8
  %18 = icmp sgt i32 %17, 0
  br i1 %18, label %19, label %23

19:                                               ; preds = %14
  %20 = load ptr, ptr %6, align 8
  %21 = load ptr, ptr %5, align 8
  %22 = call i32 @decode_and_scan(ptr noundef %20, ptr noundef %21)
  store i32 %22, ptr %7, align 4
  br label %23

23:                                               ; preds = %19, %14
  %24 = load ptr, ptr %6, align 8
  %25 = getelementptr inbounds %struct.rtf_object_data, ptr %24, i32 0, i32 0
  %26 = load ptr, ptr %25, align 8
  %27 = icmp ne ptr %26, null
  br i1 %27, label %28, label %32

28:                                               ; preds = %23
  %29 = load ptr, ptr %6, align 8
  %30 = getelementptr inbounds %struct.rtf_object_data, ptr %29, i32 0, i32 0
  %31 = load ptr, ptr %30, align 8
  call void @free(ptr noundef %31) #7
  br label %32

32:                                               ; preds = %28, %23
  %33 = load ptr, ptr %6, align 8
  %34 = getelementptr inbounds %struct.rtf_object_data, ptr %33, i32 0, i32 5
  %35 = load ptr, ptr %34, align 8
  %36 = icmp ne ptr %35, null
  br i1 %36, label %37, label %41

37:                                               ; preds = %32
  %38 = load ptr, ptr %6, align 8
  %39 = getelementptr inbounds %struct.rtf_object_data, ptr %38, i32 0, i32 5
  %40 = load ptr, ptr %39, align 8
  call void @free(ptr noundef %40) #7
  br label %41

41:                                               ; preds = %37, %32
  %42 = load ptr, ptr %6, align 8
  call void @free(ptr noundef %42) #7
  %43 = load ptr, ptr %4, align 8
  %44 = getelementptr inbounds %struct.rtf_state, ptr %43, i32 0, i32 3
  store ptr null, ptr %44, align 8
  %45 = load i32, ptr %7, align 4
  store i32 %45, ptr %3, align 4
  br label %46

46:                                               ; preds = %41, %13
  %47 = load i32, ptr %3, align 4
  ret i32 %47
}