; Function Attrs: nounwind uwtable
define internal i32 @rtf_object_end(ptr nocapture noundef %0, ptr noundef %1) #0 {
  %3 = getelementptr inbounds i8, ptr %0, i64 24
  %4 = load ptr, ptr %3, align 8
  %.not = icmp eq ptr %4, null
  br i1 %.not, label %19, label %5

5:                                                ; preds = %2
  %6 = getelementptr inbounds i8, ptr %4, i64 8
  %7 = load i32, ptr %6, align 8
  %8 = icmp sgt i32 %7, 0
  br i1 %8, label %9, label %11

9:                                                ; preds = %5
  %10 = tail call fastcc i32 @decode_and_scan(ptr noundef nonnull %4, ptr noundef %1)
  br label %11

11:                                               ; preds = %9, %5
  %.0 = phi i32 [ %10, %9 ], [ 0, %5 ]
  %12 = load ptr, ptr %4, align 8
  %.not16 = icmp eq ptr %12, null
  br i1 %.not16, label %14, label %13

13:                                               ; preds = %11
  tail call void @free(ptr noundef nonnull %12) #9
  br label %14

14:                                               ; preds = %13, %11
  %15 = getelementptr inbounds i8, ptr %4, i64 24
  %16 = load ptr, ptr %15, align 8
  %.not17 = icmp eq ptr %16, null
  br i1 %.not17, label %18, label %17

17:                                               ; preds = %14
  tail call void @free(ptr noundef nonnull %16) #9
  br label %18

18:                                               ; preds = %17, %14
  tail call void @free(ptr noundef nonnull %4) #9
  store ptr null, ptr %3, align 8
  br label %19

19:                                               ; preds = %2, %18
  %.012 = phi i32 [ %.0, %18 ], [ 0, %2 ]
  ret i32 %.012
}